(dp1
(S'testdemo2'
S'pending'
p2
tp3
ccopy_reg
_reconstructor
p4
(cpyspider.libs.counter
TimebaseAverageWindowCounter
p5
c__builtin__
object
p6
NtRp7
(dp8
S'_first_data_time'
p9
F1580206011.6334529
sS'window_size'
p10
F74.506077077653671
sS'times'
p11
ccollections
deque
p12
((lp13
F1580206011.6334529
aF1580206377.2914121
aF1580206900.033011
aI600
tRp14
sS'window_interval'
p15
I144
sS'values'
p16
g12
((lp17
I6
aI7
aI2
aI600
tRp18
sS'cache_value'
p19
I0
sS'max_window_size'
p20
I600
sS'cache_start'
p21
Nsbs(S'testdemo1'
g2
tp22
g4
(g5
g6
NtRp23
(dp24
g9
F1580206138.461508
sg10
F73.625326714581917
sg11
g12
((lp25
F1580206138.461508
aF1580211294.4495461
aF1580211618.1677549
aF1580212502.3994689
aF1580212648.305166
aF1580213314.5149181
aI600
tRp26
sg15
I144
sg16
g12
((lp27
I14
aI2
aI4
aI2
aI240
aI115
aI600
tRp28
sg19
I0
sg20
I600
sg21
Nsbs(Vtestdemo1
S'retry'
tp29
g4
(g5
g6
NtRp30
(dp31
g9
F1580212693.895817
sg10
F28.101477368010414
sg11
g12
((lp32
F1580212693.895817
aF1580216456.2706831
aI600
tRp33
sg15
I144
sg16
g12
((lp34
I5
aI2
aI600
tRp35
sg19
I0
sg20
I600
sg21
Nsbs(Vtestdemo1
S'success'
p36
tp37
g4
(g5
g6
NtRp38
(dp39
g9
F1580206138.8621011
sg10
F73.622544859846428
sg11
g12
((lp40
F1580206138.8621011
aF1580211294.8530991
aF1580211618.469739
aF1580212502.8043511
aF1580212648.7084451
aF1580212793.250037
aF1580213314.9174869
aI600
tRp41
sg15
I144
sg16
g12
((lp42
I14
aI2
aI4
aI2
aI142
aI96
aI115
aI600
tRp43
sg19
I0
sg20
I600
sg21
Nsbs(Vtestdemo2
g36
tp44
g4
(g5
g6
NtRp45
(dp46
g9
F1580206011.9316721
sg10
F74.504006193743805
sg11
g12
((lp47
F1580206011.9316721
aF1580206377.692893
aF1580206900.4394231
aI600
tRp48
sg15
I144
sg16
g12
((lp49
I6
aI7
aI2
aI600
tRp50
sg19
I0
sg20
I600
sg21
Nsbs.