(dp1
(Vtestdemo2
S'success'
p2
tp3
ccopy_reg
_reconstructor
p4
(cpyspider.libs.counter
TotalCounter
p5
c__builtin__
object
p6
NtRp7
(dp8
S'cnt'
p9
I3
sbs(Vtestdemo1
g2
tp10
g4
(g5
g6
NtRp11
(dp12
g9
I365
sbs(Vtestdemo1
S'pending'
tp13
g4
(g5
g6
NtRp14
(dp15
g9
I2
sbs.